target datalayout = "e-m:e-p270:32:32-p271:32:32-p272:64:64-i64:64-i128:128-f80:128-n8:16:32:64-S128"
target triple = "x86_64-pc-linux-gnu"

@proto_ppp = internal global i32 0, align 4
@hf_ppp_address = internal global i32 0, align 4
@hf_ppp_control = internal global i32 0, align 4
@ett_ppp = internal global i32 0, align 4
@ppp_fcs_decode = internal global i32 0, align 4

; Function Attrs: null_pointer_is_valid sspstrong uwtable
define internal void @dissect_ppp_hdlc_common(ptr noundef %0, ptr noundef %1, ptr noundef %2) #1 {
  %4 = alloca ptr, align 8
  %5 = alloca ptr, align 8
  %6 = alloca ptr, align 8
  %7 = alloca ptr, align 8
  %8 = alloca ptr, align 8
  %9 = alloca i8, align 1
  %10 = alloca i32, align 4
  %11 = alloca ptr, align 8
  store ptr %0, ptr %4, align 8
  store ptr %1, ptr %5, align 8
  store ptr %2, ptr %6, align 8
  call void @llvm.lifetime.start.p0(i64 8, ptr %7) #6
  call void @llvm.lifetime.start.p0(i64 8, ptr %8) #6
  call void @llvm.lifetime.start.p0(i64 1, ptr %9) #6
  call void @llvm.lifetime.start.p0(i64 4, ptr %10) #6
  call void @llvm.lifetime.start.p0(i64 8, ptr %11) #6
  %12 = load ptr, ptr %4, align 8
  %13 = call zeroext i8 @tvb_get_uint8(ptr noundef %12, i32 noundef 0)
  store i8 %13, ptr %9, align 1
  %14 = load i8, ptr %9, align 1
  %15 = zext i8 %14 to i32
  %16 = icmp eq i32 %15, 255
  br i1 %16, label %17, label %18

17:                                               ; preds = %3
  store i32 2, ptr %10, align 4
  br label %19

18:                                               ; preds = %3
  store i32 0, ptr %10, align 4
  br label %19

19:                                               ; preds = %18, %17
  %20 = load ptr, ptr %6, align 8
  %21 = load i32, ptr @proto_ppp, align 4
  %22 = load ptr, ptr %4, align 8
  %23 = call ptr @proto_tree_add_item(ptr noundef %20, i32 noundef %21, ptr noundef %22, i32 noundef 0, i32 noundef -1, i32 noundef 0)
  store ptr %23, ptr %7, align 8
  %24 = load ptr, ptr %7, align 8
  %25 = load i32, ptr @ett_ppp, align 4
  %26 = call ptr @proto_item_add_subtree(ptr noundef %24, i32 noundef %25)
  store ptr %26, ptr %8, align 8
  %27 = load i8, ptr %9, align 1
  %28 = zext i8 %27 to i32
  %29 = icmp eq i32 %28, 255
  br i1 %29, label %30, label %39

30:                                               ; preds = %19
  %31 = load ptr, ptr %8, align 8
  %32 = load i32, ptr @hf_ppp_address, align 4
  %33 = load ptr, ptr %4, align 8
  %34 = call ptr @proto_tree_add_item(ptr noundef %31, i32 noundef %32, ptr noundef %33, i32 noundef 0, i32 noundef 1, i32 noundef 0)
  %35 = load ptr, ptr %8, align 8
  %36 = load i32, ptr @hf_ppp_control, align 4
  %37 = load ptr, ptr %4, align 8
  %38 = call ptr @proto_tree_add_item(ptr noundef %35, i32 noundef %36, ptr noundef %37, i32 noundef 1, i32 noundef 1, i32 noundef 0)
  br label %39

39:                                               ; preds = %30, %19
  %40 = load ptr, ptr %4, align 8
  %41 = load ptr, ptr %5, align 8
  %42 = load ptr, ptr %8, align 8
  %43 = load i32, ptr @ppp_fcs_decode, align 4
  %44 = load i32, ptr %10, align 4
  %45 = call ptr @decode_fcs(ptr noundef %40, ptr noundef %41, ptr noundef %42, i32 noundef %43, i32 noundef %44)
  store ptr %45, ptr %11, align 8
  %46 = load ptr, ptr %11, align 8
  %47 = load ptr, ptr %5, align 8
  %48 = load ptr, ptr %6, align 8
  %49 = load ptr, ptr %8, align 8
  %50 = load ptr, ptr %7, align 8
  %51 = load i32, ptr %10, align 4
  call void @dissect_ppp_common(ptr noundef %46, ptr noundef %47, ptr noundef %48, ptr noundef %49, ptr noundef %50, i32 noundef %51)
  call void @llvm.lifetime.end.p0(i64 8, ptr %11) #6
  call void @llvm.lifetime.end.p0(i64 4, ptr %10) #6
  call void @llvm.lifetime.end.p0(i64 1, ptr %9) #6
  call void @llvm.lifetime.end.p0(i64 8, ptr %8) #6
  call void @llvm.lifetime.end.p0(i64 8, ptr %7) #6
  ret void
}