; Function Attrs: null_pointer_is_valid sspstrong uwtable
define internal fastcc void @dissect_ppp_hdlc_common(ptr noundef %0, ptr noundef %1, ptr noundef %2) unnamed_addr #1 {
  %4 = tail call zeroext i8 @tvb_get_uint8(ptr noundef %0, i32 noundef 0)
  %5 = icmp eq i8 %4, -1
  %6 = load i32, ptr @proto_ppp, align 4
  %7 = tail call ptr @proto_tree_add_item(ptr noundef %2, i32 noundef %6, ptr noundef %0, i32 noundef 0, i32 noundef -1, i32 noundef 0)
  %8 = load i32, ptr @ett_ppp, align 4
  %9 = tail call ptr @proto_item_add_subtree(ptr noundef %7, i32 noundef %8)
  br i1 %5, label %10, label %15

10:                                               ; preds = %3
  %11 = load i32, ptr @hf_ppp_address, align 4
  %12 = tail call ptr @proto_tree_add_item(ptr noundef %9, i32 noundef %11, ptr noundef %0, i32 noundef 0, i32 noundef 1, i32 noundef 0)
  %13 = load i32, ptr @hf_ppp_control, align 4
  %14 = tail call ptr @proto_tree_add_item(ptr noundef %9, i32 noundef %13, ptr noundef %0, i32 noundef 1, i32 noundef 1, i32 noundef 0)
  br label %15

15:                                               ; preds = %10, %3
  %. = phi i32 [ 2, %10 ], [ 0, %3 ]
  %16 = load i32, ptr @ppp_fcs_decode, align 4
  %17 = tail call ptr @decode_fcs(ptr noundef %0, ptr noundef %1, ptr noundef %9, i32 noundef %16, i32 noundef %.)
  tail call fastcc void @dissect_ppp_common(ptr noundef %17, ptr noundef %1, ptr noundef %2, ptr noundef %9, ptr noundef %7, i32 noundef %.)
  ret void
}